target datalayout = "e-m:e-p270:32:32-p271:32:32-p272:64:64-i64:64-i128:128-f80:128-n8:16:32:64-S128"
target triple = "x86_64-pc-linux-gnu"

%struct.pg_conn = type { ptr, ptr, ptr, ptr, ptr, ptr, ptr, ptr, ptr, ptr, ptr, ptr, ptr, ptr, ptr, ptr, ptr, ptr, ptr, ptr, ptr, ptr, ptr, ptr, ptr, ptr, ptr, ptr, ptr, ptr, ptr, ptr, ptr, ptr, ptr, ptr, ptr, ptr, ptr, ptr, ptr, ptr, ptr, i8, ptr, i32, %struct.PGNoticeHooks, ptr, i32, i32, i32, i32, i32, [6 x i8], i8, i8, i32, i8, i8, i32, i8, i32, ptr, ptr, i32, i32, ptr, ptr, ptr, ptr, ptr, i32, %struct.SockAddr, %struct.SockAddr, i32, i32, i8, i8, i8, i8, i8, i8, ptr, i8, i32, [1 x ptr], i8, i8, ptr, ptr, i32, i32, i32, i8, i8, i32, i32, ptr, i8, i64, ptr, i64, ptr, i32, i32, ptr, i32, i8, i32, i32, i32, i32, ptr, %struct.pg_prng_state, ptr, i32, i32, i32, i32, ptr, i32, i32, i32, i32, ptr, i32, ptr, i8, ptr, ptr, ptr, i32, i8, i8, i8, i8, i8, i8, i8, i8, %struct.PQExpBufferData, i32, %struct.PQExpBufferData }
%struct.PGNoticeHooks = type { ptr, ptr, ptr, ptr }
%struct.SockAddr = type { %struct.sockaddr_storage, i32 }
%struct.sockaddr_storage = type { i16, [118 x i8], i64 }
%struct.pg_prng_state = type { i64, i64 }
%struct.PQExpBufferData = type { ptr, i64, i64 }

@.str.57 = private unnamed_addr constant [16 x i8] c"connect_timeout\00", align 1
@.str.102 = private unnamed_addr constant [54 x i8] c"invalid integer value \22%s\22 for connection option \22%s\22\00", align 1

; Function Attrs: nounwind uwtable
define zeroext i1 @pqParseIntParam(ptr noundef %0, ptr noundef %1, ptr noundef %2, ptr noundef %3) #0 {
  %5 = alloca i1, align 1
  %6 = alloca ptr, align 8
  %7 = alloca ptr, align 8
  %8 = alloca ptr, align 8
  %9 = alloca ptr, align 8
  %10 = alloca ptr, align 8
  %11 = alloca i64, align 8
  %12 = alloca i32, align 4
  store ptr %0, ptr %6, align 8
  store ptr %1, ptr %7, align 8
  store ptr %2, ptr %8, align 8
  store ptr %3, ptr %9, align 8
  call void @llvm.lifetime.start.p0(i64 8, ptr %10) #12
  call void @llvm.lifetime.start.p0(i64 8, ptr %11) #12
  %13 = load ptr, ptr %7, align 8
  store i32 0, ptr %13, align 4
  %14 = call ptr @__errno_location() #16
  store i32 0, ptr %14, align 4
  %15 = load ptr, ptr %6, align 8
  %16 = call i64 @strtol(ptr noundef %15, ptr noundef %10, i32 noundef 10) #12
  store i64 %16, ptr %11, align 8
  %17 = load ptr, ptr %6, align 8
  %18 = load ptr, ptr %10, align 8
  %19 = icmp eq ptr %17, %18
  br i1 %19, label %30, label %20

20:                                               ; preds = %4
  %21 = call ptr @__errno_location() #16
  %22 = load i32, ptr %21, align 4
  %23 = icmp ne i32 %22, 0
  br i1 %23, label %30, label %24

24:                                               ; preds = %20
  %25 = load i64, ptr %11, align 8
  %26 = load i64, ptr %11, align 8
  %27 = trunc i64 %26 to i32
  %28 = sext i32 %27 to i64
  %29 = icmp ne i64 %25, %28
  br i1 %29, label %30, label %31

30:                                               ; preds = %24, %20, %4
  br label %64

31:                                               ; preds = %24
  br label %32

32:                                               ; preds = %51, %31
  %33 = load ptr, ptr %10, align 8
  %34 = load i8, ptr %33, align 1
  %35 = sext i8 %34 to i32
  %36 = icmp ne i32 %35, 0
  br i1 %36, label %37, label %49

37:                                               ; preds = %32
  %38 = call ptr @__ctype_b_loc() #16
  %39 = load ptr, ptr %38, align 8
  %40 = load ptr, ptr %10, align 8
  %41 = load i8, ptr %40, align 1
  %42 = zext i8 %41 to i32
  %43 = sext i32 %42 to i64
  %44 = getelementptr inbounds i16, ptr %39, i64 %43
  %45 = load i16, ptr %44, align 2
  %46 = zext i16 %45 to i32
  %47 = and i32 %46, 8192
  %48 = icmp ne i32 %47, 0
  br label %49

49:                                               ; preds = %37, %32
  %50 = phi i1 [ false, %32 ], [ %48, %37 ]
  br i1 %50, label %51, label %54

51:                                               ; preds = %49
  %52 = load ptr, ptr %10, align 8
  %53 = getelementptr inbounds nuw i8, ptr %52, i32 1
  store ptr %53, ptr %10, align 8
  br label %32, !llvm.loop !37

54:                                               ; preds = %49
  %55 = load ptr, ptr %10, align 8
  %56 = load i8, ptr %55, align 1
  %57 = sext i8 %56 to i32
  %58 = icmp ne i32 %57, 0
  br i1 %58, label %59, label %60

59:                                               ; preds = %54
  br label %64

60:                                               ; preds = %54
  %61 = load i64, ptr %11, align 8
  %62 = trunc i64 %61 to i32
  %63 = load ptr, ptr %7, align 8
  store i32 %62, ptr %63, align 4
  store i1 true, ptr %5, align 1
  store i32 1, ptr %12, align 4
  br label %68

64:                                               ; preds = %59, %30
  %65 = load ptr, ptr %8, align 8
  %66 = load ptr, ptr %6, align 8
  %67 = load ptr, ptr %9, align 8
  call void (ptr, ptr, ...) @libpq_append_conn_error(ptr noundef %65, ptr noundef @.str.102, ptr noundef %66, ptr noundef %67)
  store i1 false, ptr %5, align 1
  store i32 1, ptr %12, align 4
  br label %68

68:                                               ; preds = %64, %60
  call void @llvm.lifetime.end.p0(i64 8, ptr %11) #12
  call void @llvm.lifetime.end.p0(i64 8, ptr %10) #12
  %69 = load i1, ptr %5, align 1
  ret i1 %69
}

; Function Attrs: nounwind uwtable
define i32 @pqConnectDBComplete(ptr noundef %0) #0 {
  %2 = alloca i32, align 4
  %3 = alloca ptr, align 8
  %4 = alloca i32, align 4
  %5 = alloca i64, align 8
  %6 = alloca i32, align 4
  %7 = alloca i32, align 4
  %8 = alloca i32, align 4
  %9 = alloca i32, align 4
  %10 = alloca i32, align 4
  store ptr %0, ptr %3, align 8
  call void @llvm.lifetime.start.p0(i64 4, ptr %4) #12
  store i32 2, ptr %4, align 4
  call void @llvm.lifetime.start.p0(i64 8, ptr %5) #12
  store i64 -1, ptr %5, align 8
  call void @llvm.lifetime.start.p0(i64 4, ptr %6) #12
  store i32 0, ptr %6, align 4
  call void @llvm.lifetime.start.p0(i64 4, ptr %7) #12
  store i32 -2, ptr %7, align 4
  call void @llvm.lifetime.start.p0(i64 4, ptr %8) #12
  store i32 -2, ptr %8, align 4
  %11 = load ptr, ptr %3, align 8
  %12 = icmp eq ptr %11, null
  br i1 %12, label %18, label %13

13:                                               ; preds = %1
  %14 = load ptr, ptr %3, align 8
  %15 = getelementptr inbounds nuw %struct.pg_conn, ptr %14, i32 0, i32 50
  %16 = load i32, ptr %15, align 8
  %17 = icmp eq i32 %16, 1
  br i1 %17, label %18, label %19

18:                                               ; preds = %13, %1
  store i32 0, ptr %2, align 4
  store i32 1, ptr %9, align 4
  br label %114

19:                                               ; preds = %13
  %20 = load ptr, ptr %3, align 8
  %21 = getelementptr inbounds nuw %struct.pg_conn, ptr %20, i32 0, i32 3
  %22 = load ptr, ptr %21, align 8
  %23 = icmp ne ptr %22, null
  br i1 %23, label %24, label %34

24:                                               ; preds = %19
  %25 = load ptr, ptr %3, align 8
  %26 = getelementptr inbounds nuw %struct.pg_conn, ptr %25, i32 0, i32 3
  %27 = load ptr, ptr %26, align 8
  %28 = load ptr, ptr %3, align 8
  %29 = call zeroext i1 @pqParseIntParam(ptr noundef %27, ptr noundef %6, ptr noundef %28, ptr noundef @.str.57)
  br i1 %29, label %33, label %30

30:                                               ; preds = %24
  %31 = load ptr, ptr %3, align 8
  %32 = getelementptr inbounds nuw %struct.pg_conn, ptr %31, i32 0, i32 50
  store i32 1, ptr %32, align 8
  store i32 0, ptr %2, align 4
  store i32 1, ptr %9, align 4
  br label %114

33:                                               ; preds = %24
  br label %34

34:                                               ; preds = %33, %19
  br label %35

35:                                               ; preds = %113, %34
  call void @llvm.lifetime.start.p0(i64 4, ptr %10) #12
  store i32 0, ptr %10, align 4
  %36 = load i32, ptr %4, align 4
  %37 = icmp ne i32 %36, 3
  br i1 %37, label %38, label %65

38:                                               ; preds = %35
  %39 = load i32, ptr %6, align 4
  %40 = icmp sgt i32 %39, 0
  br i1 %40, label %41, label %65

41:                                               ; preds = %38
  %42 = load ptr, ptr %3, align 8
  %43 = getelementptr inbounds nuw %struct.pg_conn, ptr %42, i32 0, i32 65
  %44 = load i32, ptr %43, align 4
  %45 = load i32, ptr %7, align 4
  %46 = icmp ne i32 %44, %45
  br i1 %46, label %53, label %47

47:                                               ; preds = %41
  %48 = load ptr, ptr %3, align 8
  %49 = getelementptr inbounds nuw %struct.pg_conn, ptr %48, i32 0, i32 96
  %50 = load i32, ptr %49, align 4
  %51 = load i32, ptr %8, align 4
  %52 = icmp ne i32 %50, %51
  br i1 %52, label %53, label %65

53:                                               ; preds = %47, %41
  %54 = call i64 @PQgetCurrentTimeUSec()
  %55 = load i32, ptr %6, align 4
  %56 = sext i32 %55 to i64
  %57 = mul i64 %56, 1000000
  %58 = add i64 %54, %57
  store i64 %58, ptr %5, align 8
  %59 = load ptr, ptr %3, align 8
  %60 = getelementptr inbounds nuw %struct.pg_conn, ptr %59, i32 0, i32 65
  %61 = load i32, ptr %60, align 4
  store i32 %61, ptr %7, align 4
  %62 = load ptr, ptr %3, align 8
  %63 = getelementptr inbounds nuw %struct.pg_conn, ptr %62, i32 0, i32 96
  %64 = load i32, ptr %63, align 4
  store i32 %64, ptr %8, align 4
  br label %65

65:                                               ; preds = %53, %47, %38, %35
  %66 = load i32, ptr %4, align 4
  switch i32 %66, label %88 [
    i32 3, label %67
    i32 1, label %68
    i32 2, label %78
  ]

67:                                               ; preds = %65
  store i32 1, ptr %2, align 4
  store i32 1, ptr %9, align 4
  br label %111

68:                                               ; preds = %65
  %69 = load ptr, ptr %3, align 8
  %70 = load i64, ptr %5, align 8
  %71 = call i32 @pqWaitTimed(i32 noundef 1, i32 noundef 0, ptr noundef %69, i64 noundef %70)
  store i32 %71, ptr %10, align 4
  %72 = load i32, ptr %10, align 4
  %73 = icmp eq i32 %72, -1
  br i1 %73, label %74, label %77

74:                                               ; preds = %68
  %75 = load ptr, ptr %3, align 8
  %76 = getelementptr inbounds nuw %struct.pg_conn, ptr %75, i32 0, i32 50
  store i32 1, ptr %76, align 8
  store i32 0, ptr %2, align 4
  store i32 1, ptr %9, align 4
  br label %111

77:                                               ; preds = %68
  br label %91

78:                                               ; preds = %65
  %79 = load ptr, ptr %3, align 8
  %80 = load i64, ptr %5, align 8
  %81 = call i32 @pqWaitTimed(i32 noundef 0, i32 noundef 1, ptr noundef %79, i64 noundef %80)
  store i32 %81, ptr %10, align 4
  %82 = load i32, ptr %10, align 4
  %83 = icmp eq i32 %82, -1
  br i1 %83, label %84, label %87

84:                                               ; preds = %78
  %85 = load ptr, ptr %3, align 8
  %86 = getelementptr inbounds nuw %struct.pg_conn, ptr %85, i32 0, i32 50
  store i32 1, ptr %86, align 8
  store i32 0, ptr %2, align 4
  store i32 1, ptr %9, align 4
  br label %111

87:                                               ; preds = %78
  br label %91

88:                                               ; preds = %65
  %89 = load ptr, ptr %3, align 8
  %90 = getelementptr inbounds nuw %struct.pg_conn, ptr %89, i32 0, i32 50
  store i32 1, ptr %90, align 8
  store i32 0, ptr %2, align 4
  store i32 1, ptr %9, align 4
  br label %111

91:                                               ; preds = %87, %77
  %92 = load i32, ptr %10, align 4
  %93 = icmp eq i32 %92, 1
  br i1 %93, label %94, label %99

94:                                               ; preds = %91
  %95 = load ptr, ptr %3, align 8
  %96 = getelementptr inbounds nuw %struct.pg_conn, ptr %95, i32 0, i32 93
  store i8 1, ptr %96, align 4
  %97 = load ptr, ptr %3, align 8
  %98 = getelementptr inbounds nuw %struct.pg_conn, ptr %97, i32 0, i32 50
  store i32 8, ptr %98, align 8
  br label %99

99:                                               ; preds = %94, %91
  %100 = load ptr, ptr %3, align 8
  %101 = getelementptr inbounds nuw %struct.pg_conn, ptr %100, i32 0, i32 43
  %102 = load i8, ptr %101, align 8, !range !3, !noundef !4
  %103 = trunc i8 %102 to i1
  br i1 %103, label %104, label %107

104:                                              ; preds = %99
  %105 = load ptr, ptr %3, align 8
  %106 = call i32 @PQcancelPoll(ptr noundef %105)
  store i32 %106, ptr %4, align 4
  br label %110

107:                                              ; preds = %99
  %108 = load ptr, ptr %3, align 8
  %109 = call i32 @PQconnectPoll(ptr noundef %108)
  store i32 %109, ptr %4, align 4
  br label %110

110:                                              ; preds = %107, %104
  store i32 0, ptr %9, align 4
  br label %111

111:                                              ; preds = %110, %88, %84, %74, %67
  call void @llvm.lifetime.end.p0(i64 4, ptr %10) #12
  %112 = load i32, ptr %9, align 4
  switch i32 %112, label %114 [
    i32 0, label %113
  ]

113:                                              ; preds = %111
  br label %35

114:                                              ; preds = %111, %30, %18
  call void @llvm.lifetime.end.p0(i64 4, ptr %8) #12
  call void @llvm.lifetime.end.p0(i64 4, ptr %7) #12
  call void @llvm.lifetime.end.p0(i64 4, ptr %6) #12
  call void @llvm.lifetime.end.p0(i64 8, ptr %5) #12
  call void @llvm.lifetime.end.p0(i64 4, ptr %4) #12
  %115 = load i32, ptr %2, align 4
  ret i32 %115
}