; Function Attrs: nounwind uwtable
define range(i32 0, 2) i32 @pqConnectDBComplete(ptr noundef %0) local_unnamed_addr #0 {
  %2 = alloca ptr, align 8
  %3 = icmp eq ptr %0, null
  br i1 %3, label %.thread, label %4

4:                                                ; preds = %1
  %5 = getelementptr inbounds nuw i8, ptr %0, i64 416
  %6 = load i32, ptr %5, align 8
  %7 = icmp eq i32 %6, 1
  br i1 %7, label %.thread, label %8

8:                                                ; preds = %4
  %9 = getelementptr inbounds nuw i8, ptr %0, i64 24
  %10 = load ptr, ptr %9, align 8
  %.not = icmp eq ptr %10, null
  br i1 %.not, label %.thread67, label %13

.thread67:                                        ; preds = %8
  %11 = getelementptr inbounds nuw i8, ptr %0, i64 876
  %12 = getelementptr inbounds nuw i8, ptr %0, i64 344
  br label %.split.us.preheader

13:                                               ; preds = %8
  call void @llvm.lifetime.start.p0(i64 8, ptr nonnull %2) #25
  %14 = tail call ptr @__errno_location() #28
  store i32 0, ptr %14, align 4
  %15 = call i64 @strtol(ptr noundef nonnull %10, ptr noundef nonnull %2, i32 noundef 10) #25
  %.fr = freeze i64 %15
  %16 = load ptr, ptr %2, align 8
  %17 = icmp eq ptr %10, %16
  br i1 %17, label %.loopexit, label %18

18:                                               ; preds = %13
  %19 = load i32, ptr %14, align 4
  %.not.i = icmp eq i32 %19, 0
  br i1 %.not.i, label %20, label %.loopexit

20:                                               ; preds = %18
  %21 = trunc i64 %.fr to i32
  %22 = add i64 %.fr, 2147483648
  %.not10.i = icmp ult i64 %22, 4294967296
  br i1 %.not10.i, label %.preheader.i, label %.loopexit

.preheader.i:                                     ; preds = %20
  %23 = load i8, ptr %16, align 1
  %.not1115.i = icmp eq i8 %23, 0
  br i1 %.not1115.i, label %.loopexit77, label %.lr.ph.i

.lr.ph.i:                                         ; preds = %.preheader.i
  %24 = tail call ptr @__ctype_b_loc() #28
  %25 = load ptr, ptr %24, align 8
  br label %26

26:                                               ; preds = %33, %.lr.ph.i
  %27 = phi i8 [ %23, %.lr.ph.i ], [ %35, %33 ]
  %28 = phi ptr [ %16, %.lr.ph.i ], [ %34, %33 ]
  %29 = zext i8 %27 to i64
  %30 = getelementptr inbounds nuw i16, ptr %25, i64 %29
  %31 = load i16, ptr %30, align 2
  %32 = and i16 %31, 8192
  %.not12.i = icmp eq i16 %32, 0
  br i1 %.not12.i, label %.loopexit, label %33

33:                                               ; preds = %26
  %34 = getelementptr inbounds nuw i8, ptr %28, i64 1
  %35 = load i8, ptr %34, align 1
  %.not11.i = icmp eq i8 %35, 0
  br i1 %.not11.i, label %.loopexit77, label %26, !llvm.loop !15

.loopexit:                                        ; preds = %26, %20, %18, %13
  tail call void (ptr, ptr, ...) @libpq_append_conn_error(ptr noundef nonnull %0, ptr noundef nonnull @.str.102, ptr noundef nonnull %10, ptr noundef nonnull @.str.57) #25
  call void @llvm.lifetime.end.p0(i64 8, ptr nonnull %2) #25
  br label %.thread.sink.split

.loopexit77:                                      ; preds = %33, %.preheader.i
  call void @llvm.lifetime.end.p0(i64 8, ptr nonnull %2) #25
  %36 = icmp sgt i32 %21, 0
  %37 = getelementptr inbounds nuw i8, ptr %0, i64 476
  %38 = getelementptr inbounds nuw i8, ptr %0, i64 884
  %39 = and i64 %.fr, 4294967295
  %40 = mul nuw nsw i64 %39, 1000000
  %41 = getelementptr inbounds nuw i8, ptr %0, i64 876
  %42 = getelementptr inbounds nuw i8, ptr %0, i64 344
  br i1 %36, label %.split.preheader, label %.split.us.preheader

.split.us.preheader:                              ; preds = %.thread67, %.loopexit77
  %43 = phi ptr [ %12, %.thread67 ], [ %42, %.loopexit77 ]
  %44 = phi ptr [ %11, %.thread67 ], [ %41, %.loopexit77 ]
  br label %.split.us

.split.us:                                        ; preds = %.split.us.backedge, %.split.us.preheader
  %.037.us = phi i32 [ 2, %.split.us.preheader ], [ %.037.us.be, %.split.us.backedge ]
  switch i32 %.037.us, label %.thread.sink.split [
    i32 3, label %.thread
    i32 1, label %48
    i32 2, label %45
  ]

45:                                               ; preds = %.split.us
  %46 = tail call i32 @pqWaitTimed(i32 noundef 0, i32 noundef 1, ptr noundef nonnull %0, i64 noundef -1) #25
  %47 = icmp eq i32 %46, -1
  br i1 %47, label %.thread.sink.split, label %51

48:                                               ; preds = %.split.us
  %49 = tail call i32 @pqWaitTimed(i32 noundef 1, i32 noundef 0, ptr noundef nonnull %0, i64 noundef -1) #25
  %50 = icmp eq i32 %49, -1
  br i1 %50, label %.thread.sink.split, label %51

51:                                               ; preds = %48, %45
  %.0.us = phi i32 [ %46, %45 ], [ %49, %48 ]
  %52 = icmp eq i32 %.0.us, 1
  br i1 %52, label %53, label %54

53:                                               ; preds = %51
  store i8 1, ptr %44, align 4
  store i32 8, ptr %5, align 8
  br label %54

54:                                               ; preds = %53, %51
  %55 = load i8, ptr %43, align 8, !range !13, !noundef !14
  %56 = trunc nuw i8 %55 to i1
  br i1 %56, label %59, label %57

57:                                               ; preds = %54
  %58 = tail call i32 @PQconnectPoll(ptr noundef nonnull %0)
  br label %.split.us.backedge

59:                                               ; preds = %54
  %60 = tail call i32 @PQcancelPoll(ptr noundef nonnull %0) #25
  br label %.split.us.backedge

.split.us.backedge:                               ; preds = %59, %57
  %.037.us.be = phi i32 [ %60, %59 ], [ %58, %57 ]
  br label %.split.us

.split.preheader:                                 ; preds = %.loopexit77, %.split
  %.03283 = phi i32 [ %.1, %.split ], [ -2, %.loopexit77 ]
  %.03382 = phi i32 [ %.134, %.split ], [ -2, %.loopexit77 ]
  %.03581 = phi i64 [ %.136, %.split ], [ -1, %.loopexit77 ]
  %.03780 = phi i32 [ %.138, %.split ], [ 2, %.loopexit77 ]
  %61 = load i32, ptr %37, align 4
  %.not46 = icmp eq i32 %61, %.03382
  br i1 %.not46, label %62, label %64

62:                                               ; preds = %.split.preheader
  %63 = load i32, ptr %38, align 4
  %.not47 = icmp eq i32 %63, %.03283
  br i1 %.not47, label %69, label %64

64:                                               ; preds = %62, %.split.preheader
  %65 = tail call i64 @PQgetCurrentTimeUSec() #25
  %66 = add i64 %65, %40
  %67 = load i32, ptr %37, align 4
  %68 = load i32, ptr %38, align 4
  br label %69

69:                                               ; preds = %64, %62
  %.136 = phi i64 [ %66, %64 ], [ %.03581, %62 ]
  %.134 = phi i32 [ %67, %64 ], [ %.03382, %62 ]
  %.1 = phi i32 [ %68, %64 ], [ %.03283, %62 ]
  switch i32 %.03780, label %.thread.sink.split [
    i32 2, label %73
    i32 1, label %70
  ]

70:                                               ; preds = %69
  %71 = tail call i32 @pqWaitTimed(i32 noundef 1, i32 noundef 0, ptr noundef nonnull %0, i64 noundef %.136) #25
  %72 = icmp eq i32 %71, -1
  br i1 %72, label %.thread.sink.split, label %76

73:                                               ; preds = %69
  %74 = tail call i32 @pqWaitTimed(i32 noundef 0, i32 noundef 1, ptr noundef nonnull %0, i64 noundef %.136) #25
  %75 = icmp eq i32 %74, -1
  br i1 %75, label %.thread.sink.split, label %76

76:                                               ; preds = %73, %70
  %.0 = phi i32 [ %74, %73 ], [ %71, %70 ]
  %77 = icmp eq i32 %.0, 1
  br i1 %77, label %78, label %79

78:                                               ; preds = %76
  store i8 1, ptr %41, align 4
  store i32 8, ptr %5, align 8
  br label %79

79:                                               ; preds = %78, %76
  %80 = load i8, ptr %42, align 8, !range !13, !noundef !14
  %81 = trunc nuw i8 %80 to i1
  br i1 %81, label %82, label %84

82:                                               ; preds = %79
  %83 = tail call i32 @PQcancelPoll(ptr noundef nonnull %0) #25
  br label %.split

84:                                               ; preds = %79
  %85 = tail call i32 @PQconnectPoll(ptr noundef nonnull %0)
  br label %.split

.split:                                           ; preds = %82, %84
  %.138 = phi i32 [ %83, %82 ], [ %85, %84 ]
  %.not62 = icmp eq i32 %.138, 3
  br i1 %.not62, label %.thread, label %.split.preheader

.thread.sink.split:                               ; preds = %69, %73, %70, %.split.us, %45, %48, %.loopexit
  store i32 1, ptr %5, align 8
  br label %.thread

.thread:                                          ; preds = %.split, %.split.us, %.thread.sink.split, %1, %4
  %.039 = phi i32 [ 0, %4 ], [ 0, %1 ], [ 0, %.thread.sink.split ], [ 1, %.split.us ], [ 1, %.split ]
  ret i32 %.039
}